; Function Attrs: mustprogress uwtable
define noundef zeroext i1 @_ZNK5arrow6Tensor12is_row_majorEv(ptr nocapture noundef nonnull readonly align 8 dereferenceable(112) %this) local_unnamed_addr #0 align 2 {
entry:
  %type_ = getelementptr inbounds i8, ptr %this, i64 8
  %shape_ = getelementptr inbounds i8, ptr %this, i64 40
  %strides_ = getelementptr inbounds i8, ptr %this, i64 64
  %type_.val = load ptr, ptr %type_, align 8
  %call = tail call fastcc noundef zeroext i1 @_ZN5arrow12_GLOBAL__N_123IsTensorStridesRowMajorERKSt10shared_ptrINS_8DataTypeEERKSt6vectorIlSaIlEESA_(ptr %type_.val, ptr noundef nonnull align 8 dereferenceable(24) %shape_, ptr noundef nonnull align 8 dereferenceable(24) %strides_)
  ret i1 %call
}